target datalayout = "e-m:e-p270:32:32-p271:32:32-p272:64:64-i64:64-i128:128-f80:128-n8:16:32:64-S128"
target triple = "x86_64-pc-linux-gnu"

%struct.bmp_dest_struct = type { %struct.djpeg_dest_struct, i32, ptr, i32, i32, i32, i32, i32, ptr }
%struct.djpeg_dest_struct = type { ptr, ptr, ptr, ptr, ptr, ptr, ptr, ptr, i32 }

; Function Attrs: nounwind uwtable
define internal void @start_output_bmp(ptr noundef %0, ptr noundef %1) #0 {
  %3 = alloca ptr, align 8
  %4 = alloca ptr, align 8
  %5 = alloca ptr, align 8
  store ptr %0, ptr %3, align 8, !tbaa !4
  store ptr %1, ptr %4, align 8, !tbaa !79
  call void @llvm.lifetime.start.p0(i64 8, ptr %5) #7
  %6 = load ptr, ptr %4, align 8, !tbaa !79
  store ptr %6, ptr %5, align 8, !tbaa !43
  %7 = load ptr, ptr %5, align 8, !tbaa !43
  %8 = getelementptr inbounds nuw %struct.bmp_dest_struct, ptr %7, i32 0, i32 7
  %9 = load i32, ptr %8, align 8, !tbaa !75
  %10 = icmp ne i32 %9, 0
  br i1 %10, label %23, label %11

11:                                               ; preds = %2
  %12 = load ptr, ptr %5, align 8, !tbaa !43
  %13 = getelementptr inbounds nuw %struct.bmp_dest_struct, ptr %12, i32 0, i32 1
  %14 = load i32, ptr %13, align 8, !tbaa !52
  %15 = icmp ne i32 %14, 0
  br i1 %15, label %16, label %19

16:                                               ; preds = %11
  %17 = load ptr, ptr %3, align 8, !tbaa !4
  %18 = load ptr, ptr %5, align 8, !tbaa !43
  call void @write_os2_header(ptr noundef %17, ptr noundef %18)
  br label %22

19:                                               ; preds = %11
  %20 = load ptr, ptr %3, align 8, !tbaa !4
  %21 = load ptr, ptr %5, align 8, !tbaa !43
  call void @write_bmp_header(ptr noundef %20, ptr noundef %21)
  br label %22

22:                                               ; preds = %19, %16
  br label %23

23:                                               ; preds = %22, %2
  call void @llvm.lifetime.end.p0(i64 8, ptr %5) #7
  ret void
}