; Function Attrs: nounwind uwtable
define internal void @start_output_bmp(ptr noundef %0, ptr noundef readonly captures(none) %1) #0 {
  %3 = getelementptr inbounds nuw i8, ptr %1, i64 104
  %4 = load i32, ptr %3, align 8, !tbaa !66
  %.not = icmp eq i32 %4, 0
  br i1 %.not, label %5, label %10

5:                                                ; preds = %2
  %6 = getelementptr inbounds nuw i8, ptr %1, i64 72
  %7 = load i32, ptr %6, align 8, !tbaa !48
  %.not7 = icmp eq i32 %7, 0
  br i1 %.not7, label %9, label %8

8:                                                ; preds = %5
  tail call fastcc void @write_os2_header(ptr noundef %0, ptr noundef nonnull %1)
  br label %10

9:                                                ; preds = %5
  tail call fastcc void @write_bmp_header(ptr noundef %0, ptr noundef nonnull %1)
  br label %10

10:                                               ; preds = %8, %9, %2
  ret void
}